target datalayout = "e-m:e-p270:32:32-p271:32:32-p272:64:64-i64:64-i128:128-f80:128-n8:16:32:64-S128"
target triple = "x86_64-pc-linux-gnu"

%struct._object = type { %union.anon, ptr }
%union.anon = type { i64 }
%struct.PyModuleDef = type { %struct.PyModuleDef_Base, ptr, ptr, i64, ptr, ptr, ptr, ptr, ptr }
%struct.PyModuleDef_Base = type { %struct._object, ptr, i64, ptr }
%struct.anon = type { i32, i32 }

; Function Attrs: alwaysinline nounwind uwtable
define internal i32 @_Py_IsImmortal(ptr noundef %0) #4 {
  %2 = alloca ptr, align 8
  store ptr %0, ptr %2, align 8, !tbaa !4
  %3 = load ptr, ptr %2, align 8, !tbaa !4
  %4 = getelementptr inbounds nuw %struct._object, ptr %3, i32 0, i32 0
  %5 = getelementptr inbounds nuw %struct.anon, ptr %4, i32 0, i32 0
  %6 = load i32, ptr %5, align 8, !tbaa !26
  %7 = icmp slt i32 %6, 0
  %8 = zext i1 %7 to i32
  ret i32 %8
}

; Function Attrs: inlinehint nounwind uwtable
define internal void @Py_SET_TYPE(ptr noundef %0, ptr noundef %1) #1 {
  %3 = alloca ptr, align 8
  %4 = alloca ptr, align 8
  store ptr %0, ptr %3, align 8, !tbaa !4
  store ptr %1, ptr %4, align 8, !tbaa !23
  %5 = load ptr, ptr %4, align 8, !tbaa !23
  %6 = load ptr, ptr %3, align 8, !tbaa !4
  %7 = getelementptr inbounds nuw %struct._object, ptr %6, i32 0, i32 1
  store ptr %5, ptr %7, align 8, !tbaa !27
  ret void
}

; Function Attrs: inlinehint nounwind uwtable
define internal void @Py_SET_REFCNT(ptr noundef %0, i64 noundef %1) #1 {
  %3 = alloca ptr, align 8
  %4 = alloca i64, align 8
  store ptr %0, ptr %3, align 8, !tbaa !4
  store i64 %1, ptr %4, align 8, !tbaa !25
  %5 = load ptr, ptr %3, align 8, !tbaa !4
  %6 = call i32 @_Py_IsImmortal(ptr noundef %5)
  %7 = icmp ne i32 %6, 0
  br i1 %7, label %8, label %9

8:                                                ; preds = %2
  br label %15

9:                                                ; preds = %2
  %10 = load i64, ptr %4, align 8, !tbaa !25
  %11 = trunc i64 %10 to i32
  %12 = load ptr, ptr %3, align 8, !tbaa !4
  %13 = getelementptr inbounds nuw %struct._object, ptr %12, i32 0, i32 0
  %14 = getelementptr inbounds nuw %struct.anon, ptr %13, i32 0, i32 0
  store i32 %11, ptr %14, align 8, !tbaa !26
  br label %15

15:                                               ; preds = %9, %8
  ret void
}

; Function Attrs: nounwind uwtable
define dso_local ptr @PyModuleDef_Init(ptr noundef %0) #0 {
  %2 = alloca ptr, align 8
  store ptr %0, ptr %2, align 8, !tbaa !15
  %3 = load ptr, ptr %2, align 8, !tbaa !15
  %4 = getelementptr inbounds nuw %struct.PyModuleDef, ptr %3, i32 0, i32 0
  %5 = getelementptr inbounds nuw %struct.PyModuleDef_Base, ptr %4, i32 0, i32 2
  %6 = load i64, ptr %5, align 8, !tbaa !24
  %7 = icmp eq i64 %6, 0
  br i1 %7, label %8, label %15

8:                                                ; preds = %1
  %9 = load ptr, ptr %2, align 8, !tbaa !15
  call void @Py_SET_REFCNT(ptr noundef %9, i64 noundef 1)
  %10 = load ptr, ptr %2, align 8, !tbaa !15
  call void @Py_SET_TYPE(ptr noundef %10, ptr noundef @PyModuleDef_Type)
  %11 = call i64 @_PyImport_GetNextModuleIndex()
  %12 = load ptr, ptr %2, align 8, !tbaa !15
  %13 = getelementptr inbounds nuw %struct.PyModuleDef, ptr %12, i32 0, i32 0
  %14 = getelementptr inbounds nuw %struct.PyModuleDef_Base, ptr %13, i32 0, i32 2
  store i64 %11, ptr %14, align 8, !tbaa !24
  br label %15

15:                                               ; preds = %8, %1
  %16 = load ptr, ptr %2, align 8, !tbaa !15
  ret ptr %16
}