; Function Attrs: nounwind uwtable
define dso_local noundef ptr @PyModuleDef_Init(ptr noundef returned %0) local_unnamed_addr #0 {
  %2 = getelementptr inbounds nuw i8, ptr %0, i64 24
  %3 = load i64, ptr %2, align 8, !tbaa !21
  %4 = icmp eq i64 %3, 0
  br i1 %4, label %5, label %10

5:                                                ; preds = %1
  %6 = load i32, ptr %0, align 8, !tbaa !22
  %.not.i = icmp sgt i32 %6, -1
  br i1 %.not.i, label %7, label %Py_SET_REFCNT.exit

7:                                                ; preds = %5
  store i32 1, ptr %0, align 8, !tbaa !22
  br label %Py_SET_REFCNT.exit

Py_SET_REFCNT.exit:                               ; preds = %5, %7
  %8 = getelementptr inbounds nuw i8, ptr %0, i64 8
  store ptr @PyModuleDef_Type, ptr %8, align 8, !tbaa !4
  %9 = tail call i64 @_PyImport_GetNextModuleIndex() #8
  store i64 %9, ptr %2, align 8, !tbaa !21
  br label %10

10:                                               ; preds = %Py_SET_REFCNT.exit, %1
  ret ptr %0
}